target datalayout = "e-m:e-p270:32:32-p271:32:32-p272:64:64-i64:64-i128:128-f80:128-n8:16:32:64-S128"
target triple = "x86_64-pc-linux-gnu"

%struct.SpGistScanOpaqueData = type { %struct.SpGistState, ptr, ptr, ptr, i8, i8, i32, ptr, i32, i32, ptr, ptr, ptr, i32, %struct.FmgrInfo, %struct.FmgrInfo, ptr, ptr, ptr, i64, i8, ptr, i32, i32, [408 x %struct.ItemPointerData], [408 x i8], [408 x i8], [408 x ptr], [408 x ptr] }
%struct.SpGistState = type { ptr, %struct.spgConfigOut, %struct.SpGistTypeDesc, %struct.SpGistTypeDesc, %struct.SpGistTypeDesc, %struct.SpGistTypeDesc, ptr, ptr, i32, i8 }
%struct.spgConfigOut = type { i32, i32, i32, i8, i8 }
%struct.SpGistTypeDesc = type { i32, i16, i8, i8, i8 }
%struct.FmgrInfo = type { ptr, i32, i16, i8, i8, i8, ptr, ptr, ptr }
%struct.ItemPointerData = type { %struct.BlockIdData, i16 }
%struct.BlockIdData = type { i16, i16 }
%struct.IndexScanDescData = type { ptr, ptr, ptr, i32, i32, ptr, ptr, i8, i8, i8, i8, i8, ptr, ptr, ptr, ptr, ptr, %struct.ItemPointerData, i8, ptr, i8, ptr, ptr, i8, ptr }
%struct.RelationData = type { %struct.RelFileLocator, ptr, i32, i32, i8, i8, i8, i8, i8, i32, i32, i32, i32, ptr, ptr, i32, %struct.LockInfoData, ptr, ptr, ptr, ptr, ptr, i8, ptr, ptr, ptr, ptr, ptr, ptr, i32, ptr, i8, ptr, ptr, i32, i8, i32, ptr, i8, ptr, ptr, ptr, ptr, ptr, ptr, ptr, i32, ptr, ptr, ptr, ptr, ptr, ptr, ptr, ptr, ptr, ptr, ptr, ptr, ptr, ptr, ptr, ptr, ptr, ptr, ptr, i32, i8, ptr }
%struct.RelFileLocator = type { i32, i32, i32 }
%struct.LockInfoData = type { %struct.LockRelId }
%struct.LockRelId = type { i32, i32 }

; Function Attrs: nounwind uwtable
define dso_local void @spgendscan(ptr noundef %0) #0 {
  %2 = alloca ptr, align 8
  %3 = alloca ptr, align 8
  store ptr %0, ptr %2, align 8
  call void @llvm.lifetime.start.p0(i64 8, ptr %3) #9
  %4 = load ptr, ptr %2, align 8
  %5 = getelementptr inbounds nuw %struct.IndexScanDescData, ptr %4, i32 0, i32 12
  %6 = load ptr, ptr %5, align 8
  store ptr %6, ptr %3, align 8
  %7 = load ptr, ptr %3, align 8
  %8 = getelementptr inbounds nuw %struct.SpGistScanOpaqueData, ptr %7, i32 0, i32 2
  %9 = load ptr, ptr %8, align 8
  call void @MemoryContextDelete(ptr noundef %9)
  %10 = load ptr, ptr %3, align 8
  %11 = getelementptr inbounds nuw %struct.SpGistScanOpaqueData, ptr %10, i32 0, i32 3
  %12 = load ptr, ptr %11, align 8
  call void @MemoryContextDelete(ptr noundef %12)
  %13 = load ptr, ptr %3, align 8
  %14 = getelementptr inbounds nuw %struct.SpGistScanOpaqueData, ptr %13, i32 0, i32 7
  %15 = load ptr, ptr %14, align 8
  %16 = icmp ne ptr %15, null
  br i1 %16, label %17, label %21

17:                                               ; preds = %1
  %18 = load ptr, ptr %3, align 8
  %19 = getelementptr inbounds nuw %struct.SpGistScanOpaqueData, ptr %18, i32 0, i32 7
  %20 = load ptr, ptr %19, align 8
  call void @pfree(ptr noundef %20)
  br label %21

21:                                               ; preds = %17, %1
  %22 = load ptr, ptr %3, align 8
  %23 = getelementptr inbounds nuw %struct.SpGistScanOpaqueData, ptr %22, i32 0, i32 0
  %24 = getelementptr inbounds nuw %struct.SpGistState, ptr %23, i32 0, i32 6
  %25 = load ptr, ptr %24, align 8
  %26 = icmp ne ptr %25, null
  br i1 %26, label %27, label %44

27:                                               ; preds = %21
  %28 = load ptr, ptr %3, align 8
  %29 = getelementptr inbounds nuw %struct.SpGistScanOpaqueData, ptr %28, i32 0, i32 0
  %30 = getelementptr inbounds nuw %struct.SpGistState, ptr %29, i32 0, i32 6
  %31 = load ptr, ptr %30, align 8
  %32 = load ptr, ptr %3, align 8
  %33 = getelementptr inbounds nuw %struct.SpGistScanOpaqueData, ptr %32, i32 0, i32 0
  %34 = getelementptr inbounds nuw %struct.SpGistState, ptr %33, i32 0, i32 0
  %35 = load ptr, ptr %34, align 8
  %36 = getelementptr inbounds nuw %struct.RelationData, ptr %35, i32 0, i32 14
  %37 = load ptr, ptr %36, align 8
  %38 = icmp ne ptr %31, %37
  br i1 %38, label %39, label %44

39:                                               ; preds = %27
  %40 = load ptr, ptr %3, align 8
  %41 = getelementptr inbounds nuw %struct.SpGistScanOpaqueData, ptr %40, i32 0, i32 0
  %42 = getelementptr inbounds nuw %struct.SpGistState, ptr %41, i32 0, i32 6
  %43 = load ptr, ptr %42, align 8
  call void @FreeTupleDesc(ptr noundef %43)
  br label %44

44:                                               ; preds = %39, %27, %21
  %45 = load ptr, ptr %3, align 8
  %46 = getelementptr inbounds nuw %struct.SpGistScanOpaqueData, ptr %45, i32 0, i32 0
  %47 = getelementptr inbounds nuw %struct.SpGistState, ptr %46, i32 0, i32 7
  %48 = load ptr, ptr %47, align 8
  %49 = icmp ne ptr %48, null
  br i1 %49, label %50, label %55

50:                                               ; preds = %44
  %51 = load ptr, ptr %3, align 8
  %52 = getelementptr inbounds nuw %struct.SpGistScanOpaqueData, ptr %51, i32 0, i32 0
  %53 = getelementptr inbounds nuw %struct.SpGistState, ptr %52, i32 0, i32 7
  %54 = load ptr, ptr %53, align 8
  call void @pfree(ptr noundef %54)
  br label %55

55:                                               ; preds = %50, %44
  %56 = load ptr, ptr %2, align 8
  %57 = getelementptr inbounds nuw %struct.IndexScanDescData, ptr %56, i32 0, i32 4
  %58 = load i32, ptr %57, align 4
  %59 = icmp sgt i32 %58, 0
  br i1 %59, label %60, label %79

60:                                               ; preds = %55
  %61 = load ptr, ptr %3, align 8
  %62 = getelementptr inbounds nuw %struct.SpGistScanOpaqueData, ptr %61, i32 0, i32 11
  %63 = load ptr, ptr %62, align 8
  call void @pfree(ptr noundef %63)
  %64 = load ptr, ptr %3, align 8
  %65 = getelementptr inbounds nuw %struct.SpGistScanOpaqueData, ptr %64, i32 0, i32 12
  %66 = load ptr, ptr %65, align 8
  call void @pfree(ptr noundef %66)
  %67 = load ptr, ptr %3, align 8
  %68 = getelementptr inbounds nuw %struct.SpGistScanOpaqueData, ptr %67, i32 0, i32 16
  %69 = load ptr, ptr %68, align 8
  call void @pfree(ptr noundef %69)
  %70 = load ptr, ptr %3, align 8
  %71 = getelementptr inbounds nuw %struct.SpGistScanOpaqueData, ptr %70, i32 0, i32 17
  %72 = load ptr, ptr %71, align 8
  call void @pfree(ptr noundef %72)
  %73 = load ptr, ptr %2, align 8
  %74 = getelementptr inbounds nuw %struct.IndexScanDescData, ptr %73, i32 0, i32 21
  %75 = load ptr, ptr %74, align 8
  call void @pfree(ptr noundef %75)
  %76 = load ptr, ptr %2, align 8
  %77 = getelementptr inbounds nuw %struct.IndexScanDescData, ptr %76, i32 0, i32 22
  %78 = load ptr, ptr %77, align 8
  call void @pfree(ptr noundef %78)
  br label %79

79:                                               ; preds = %60, %55
  %80 = load ptr, ptr %3, align 8
  call void @pfree(ptr noundef %80)
  call void @llvm.lifetime.end.p0(i64 8, ptr %3) #9
  ret void
}