; Function Attrs: nounwind uwtable
define dso_local void @spgendscan(ptr noundef readonly captures(none) %0) local_unnamed_addr #0 {
  %2 = getelementptr inbounds nuw i8, ptr %0, i64 56
  %3 = load ptr, ptr %2, align 8
  %4 = getelementptr inbounds nuw i8, ptr %3, i64 104
  %5 = load ptr, ptr %4, align 8
  tail call void @MemoryContextDelete(ptr noundef %5) #8
  %6 = getelementptr inbounds nuw i8, ptr %3, i64 112
  %7 = load ptr, ptr %6, align 8
  tail call void @MemoryContextDelete(ptr noundef %7) #8
  %8 = getelementptr inbounds nuw i8, ptr %3, i64 128
  %9 = load ptr, ptr %8, align 8
  %.not = icmp eq ptr %9, null
  br i1 %.not, label %11, label %10

10:                                               ; preds = %1
  tail call void @pfree(ptr noundef nonnull %9) #8
  br label %11

11:                                               ; preds = %10, %1
  %12 = getelementptr inbounds nuw i8, ptr %3, i64 72
  %13 = load ptr, ptr %12, align 8
  %.not21 = icmp eq ptr %13, null
  br i1 %.not21, label %19, label %14

14:                                               ; preds = %11
  %15 = load ptr, ptr %3, align 8
  %16 = getelementptr inbounds nuw i8, ptr %15, i64 64
  %17 = load ptr, ptr %16, align 8
  %.not22 = icmp eq ptr %13, %17
  br i1 %.not22, label %19, label %18

18:                                               ; preds = %14
  tail call void @FreeTupleDesc(ptr noundef nonnull %13) #8
  br label %19

19:                                               ; preds = %18, %14, %11
  %20 = getelementptr inbounds nuw i8, ptr %3, i64 80
  %21 = load ptr, ptr %20, align 8
  %.not23 = icmp eq ptr %21, null
  br i1 %.not23, label %23, label %22

22:                                               ; preds = %19
  tail call void @pfree(ptr noundef nonnull %21) #8
  br label %23

23:                                               ; preds = %22, %19
  %24 = getelementptr inbounds nuw i8, ptr %0, i64 28
  %25 = load i32, ptr %24, align 4
  %26 = icmp sgt i32 %25, 0
  br i1 %26, label %27, label %40

27:                                               ; preds = %23
  %28 = getelementptr inbounds nuw i8, ptr %3, i64 152
  %29 = load ptr, ptr %28, align 8
  tail call void @pfree(ptr noundef %29) #8
  %30 = getelementptr inbounds nuw i8, ptr %3, i64 160
  %31 = load ptr, ptr %30, align 8
  tail call void @pfree(ptr noundef %31) #8
  %32 = getelementptr inbounds nuw i8, ptr %3, i64 272
  %33 = load ptr, ptr %32, align 8
  tail call void @pfree(ptr noundef %33) #8
  %34 = getelementptr inbounds nuw i8, ptr %3, i64 280
  %35 = load ptr, ptr %34, align 8
  tail call void @pfree(ptr noundef %35) #8
  %36 = getelementptr inbounds nuw i8, ptr %0, i64 120
  %37 = load ptr, ptr %36, align 8
  tail call void @pfree(ptr noundef %37) #8
  %38 = getelementptr inbounds nuw i8, ptr %0, i64 128
  %39 = load ptr, ptr %38, align 8
  tail call void @pfree(ptr noundef %39) #8
  br label %40

40:                                               ; preds = %27, %23
  tail call void @pfree(ptr noundef nonnull %3) #8
  ret void
}